target datalayout = "e-m:e-p270:32:32-p271:32:32-p272:64:64-i64:64-i128:128-f80:128-n8:16:32:64-S128"
target triple = "x86_64-pc-linux-gnu"

%struct.FWCfgState = type { %struct.SysBusDevice, i16, [2 x ptr], ptr, ptr, i16, i32, %struct.Notifier, i32, i8, i64, ptr, %struct.MemoryRegion, i8, i64, i64, i64 }
%struct.SysBusDevice = type { %struct.DeviceState, i32, [32 x %struct.anon], i32, [32 x i32] }
%struct.DeviceState = type { %struct.Object, ptr, ptr, i8, i8, i64, i32, i8, ptr, %struct.NamedGPIOListHead, %struct.NamedClockListHead, %struct.BusStateHead, i32, i32, i32, %struct.ResettableState, ptr, %struct.MemReentrancyGuard }
%struct.Object = type { ptr, ptr, ptr, i32, ptr }
%struct.NamedGPIOListHead = type { ptr }
%struct.NamedClockListHead = type { ptr }
%struct.BusStateHead = type { ptr }
%struct.ResettableState = type { i32, i8, i8 }
%struct.MemReentrancyGuard = type { i8 }
%struct.anon = type { i64, ptr }
%struct.Notifier = type { ptr, %struct.anon.0 }
%struct.anon.0 = type { ptr, ptr }
%struct.MemoryRegion = type { %struct.Object, i8, i8, i8, i8, i8, i8, i8, i8, i8, i8, ptr, ptr, ptr, ptr, ptr, ptr, i32, i128, i64, ptr, i64, i8, i8, i8, i8, ptr, i64, i32, %union.anon, %union.anon.1, %union.anon.2, ptr, i32, ptr, ptr, i8 }
%union.anon = type { %struct.QTailQLink }
%struct.QTailQLink = type { ptr, ptr }
%union.anon.1 = type { %struct.QTailQLink }
%union.anon.2 = type { %struct.QTailQLink }
%struct.FWCfgEntry = type { i32, i8, ptr, ptr, ptr, ptr }
%struct.FWCfgFiles = type { i32, [0 x %struct.fw_cfg_file] }
%struct.fw_cfg_file = type { i32, i16, i16, [56 x i8] }

@.str.1 = private unnamed_addr constant [26 x i8] c"../qemu/hw/nvram/fw_cfg.c\00", align 1
@.str.5 = private unnamed_addr constant [9 x i8] c"s->files\00", align 1
@.str.71 = private unnamed_addr constant [16 x i8] c"etc/acpi/tables\00", align 1
@.str.72 = private unnamed_addr constant [17 x i8] c"etc/table-loader\00", align 1
@.str.74 = private unnamed_addr constant [14 x i8] c"etc/acpi/rsdp\00", align 1
@__PRETTY_FUNCTION__.fw_cfg_acpi_mr_restore_post_load = private unnamed_addr constant [50 x i8] c"int fw_cfg_acpi_mr_restore_post_load(void *, int)\00", align 1
@.str.109 = private unnamed_addr constant [26 x i8] c"key < fw_cfg_max_entry(s)\00", align 1
@__PRETTY_FUNCTION__.fw_cfg_update_mr = private unnamed_addr constant [54 x i8] c"void fw_cfg_update_mr(FWCfgState *, uint16_t, size_t)\00", align 1
@error_abort = external global ptr, align 8

; Function Attrs: inlinehint nounwind sspstrong uwtable
define internal zeroext i16 @fw_cfg_file_slots(ptr noundef %0) #2 {
  %2 = alloca ptr, align 8
  store ptr %0, ptr %2, align 8
  %3 = load ptr, ptr %2, align 8
  %4 = getelementptr inbounds nuw %struct.FWCfgState, ptr %3, i32 0, i32 1
  %5 = load i16, ptr %4, align 8
  ret i16 %5
}

; Function Attrs: inlinehint nounwind sspstrong uwtable
define internal i32 @fw_cfg_max_entry(ptr noundef %0) #2 {
  %2 = alloca ptr, align 8
  store ptr %0, ptr %2, align 8
  %3 = load ptr, ptr %2, align 8
  %4 = call zeroext i16 @fw_cfg_file_slots(ptr noundef %3)
  %5 = zext i16 %4 to i32
  %6 = add i32 32, %5
  ret i32 %6
}

; Function Attrs: nounwind sspstrong uwtable
define internal void @fw_cfg_update_mr(ptr noundef %0, i16 noundef zeroext %1, i64 noundef %2) #0 {
  %4 = alloca ptr, align 8
  %5 = alloca i16, align 2
  %6 = alloca i64, align 8
  %7 = alloca ptr, align 8
  %8 = alloca i64, align 8
  %9 = alloca i32, align 4
  %10 = alloca ptr, align 8
  store ptr %0, ptr %4, align 8
  store i16 %1, ptr %5, align 2
  store i64 %2, ptr %6, align 8
  call void @llvm.lifetime.start.p0(i64 8, ptr %7) #18
  store ptr null, ptr %7, align 8, !annotation !6
  call void @llvm.lifetime.start.p0(i64 8, ptr %8) #18
  store i64 0, ptr %8, align 8, !annotation !6
  call void @llvm.lifetime.start.p0(i64 4, ptr %9) #18
  %11 = load i16, ptr %5, align 2
  %12 = zext i16 %11 to i32
  %13 = and i32 %12, 32768
  %14 = icmp ne i32 %13, 0
  %15 = xor i1 %14, true
  %16 = xor i1 %15, true
  %17 = zext i1 %16 to i32
  store i32 %17, ptr %9, align 4
  call void @llvm.lifetime.start.p0(i64 8, ptr %10) #18
  store ptr null, ptr %10, align 8, !annotation !6
  %18 = load i16, ptr %5, align 2
  %19 = zext i16 %18 to i32
  %20 = and i32 %19, -49153
  %21 = trunc i32 %20 to i16
  store i16 %21, ptr %5, align 2
  %22 = load i16, ptr %5, align 2
  %23 = zext i16 %22 to i32
  %24 = load ptr, ptr %4, align 8
  %25 = call i32 @fw_cfg_max_entry(ptr noundef %24)
  %26 = icmp ult i32 %23, %25
  br i1 %26, label %27, label %28

27:                                               ; preds = %3
  br label %29

28:                                               ; preds = %3
  call void @__assert_fail(ptr noundef @.str.109, ptr noundef @.str.1, i32 noundef 626, ptr noundef @__PRETTY_FUNCTION__.fw_cfg_update_mr) #19
  unreachable

29:                                               ; preds = %27
  %30 = load ptr, ptr %4, align 8
  %31 = getelementptr inbounds nuw %struct.FWCfgState, ptr %30, i32 0, i32 2
  %32 = load i32, ptr %9, align 4
  %33 = sext i32 %32 to i64
  %34 = getelementptr inbounds [2 x ptr], ptr %31, i64 0, i64 %33
  %35 = load ptr, ptr %34, align 8
  %36 = load i16, ptr %5, align 2
  %37 = zext i16 %36 to i64
  %38 = getelementptr inbounds nuw %struct.FWCfgEntry, ptr %35, i64 %37
  %39 = getelementptr inbounds nuw %struct.FWCfgEntry, ptr %38, i32 0, i32 2
  %40 = load ptr, ptr %39, align 8
  store ptr %40, ptr %10, align 8
  %41 = load ptr, ptr %10, align 8
  %42 = call ptr @memory_region_from_host(ptr noundef %41, ptr noundef %8)
  store ptr %42, ptr %7, align 8
  %43 = load ptr, ptr %7, align 8
  %44 = load i64, ptr %6, align 8
  call void @memory_region_ram_resize(ptr noundef %43, i64 noundef %44, ptr noundef @error_abort)
  call void @llvm.lifetime.end.p0(i64 8, ptr %10) #18
  call void @llvm.lifetime.end.p0(i64 4, ptr %9) #18
  call void @llvm.lifetime.end.p0(i64 8, ptr %8) #18
  call void @llvm.lifetime.end.p0(i64 8, ptr %7) #18
  ret void
}

; Function Attrs: inlinehint nounwind sspstrong uwtable
define internal i32 @be32_to_cpu(i32 noundef %0) #2 {
  %2 = alloca i32, align 4
  store i32 %0, ptr %2, align 4
  %3 = load i32, ptr %2, align 4
  %4 = call i32 @llvm.bswap.i32(i32 %3)
  ret i32 %4
}

; Function Attrs: nounwind sspstrong uwtable
define internal i32 @fw_cfg_acpi_mr_restore_post_load(ptr noundef %0, i32 noundef %1) #0 {
  %3 = alloca ptr, align 8
  %4 = alloca i32, align 4
  %5 = alloca ptr, align 8
  %6 = alloca i32, align 4
  %7 = alloca i32, align 4
  store ptr %0, ptr %3, align 8
  store i32 %1, ptr %4, align 4
  call void @llvm.lifetime.start.p0(i64 8, ptr %5) #18
  %8 = load ptr, ptr %3, align 8
  store ptr %8, ptr %5, align 8
  call void @llvm.lifetime.start.p0(i64 4, ptr %6) #18
  store i32 0, ptr %6, align 4, !annotation !6
  call void @llvm.lifetime.start.p0(i64 4, ptr %7) #18
  store i32 0, ptr %7, align 4, !annotation !6
  %9 = load ptr, ptr %5, align 8
  %10 = getelementptr inbounds nuw %struct.FWCfgState, ptr %9, i32 0, i32 4
  %11 = load ptr, ptr %10, align 8
  %12 = icmp ne ptr %11, null
  br i1 %12, label %13, label %14

13:                                               ; preds = %2
  br label %15

14:                                               ; preds = %2
  call void @__assert_fail(ptr noundef @.str.5, ptr noundef @.str.1, i32 noundef 639, ptr noundef @__PRETTY_FUNCTION__.fw_cfg_acpi_mr_restore_post_load) #19
  unreachable

15:                                               ; preds = %13
  %16 = load ptr, ptr %5, align 8
  %17 = getelementptr inbounds nuw %struct.FWCfgState, ptr %16, i32 0, i32 4
  %18 = load ptr, ptr %17, align 8
  %19 = getelementptr inbounds nuw %struct.FWCfgFiles, ptr %18, i32 0, i32 0
  %20 = load i32, ptr %19, align 4
  %21 = call i32 @be32_to_cpu(i32 noundef %20)
  store i32 %21, ptr %7, align 4
  store i32 0, ptr %6, align 4
  br label %22

22:                                               ; preds = %89, %15
  %23 = load i32, ptr %6, align 4
  %24 = load i32, ptr %7, align 4
  %25 = icmp slt i32 %23, %24
  br i1 %25, label %26, label %92

26:                                               ; preds = %22
  %27 = load ptr, ptr %5, align 8
  %28 = getelementptr inbounds nuw %struct.FWCfgState, ptr %27, i32 0, i32 4
  %29 = load ptr, ptr %28, align 8
  %30 = getelementptr inbounds nuw %struct.FWCfgFiles, ptr %29, i32 0, i32 1
  %31 = load i32, ptr %6, align 4
  %32 = sext i32 %31 to i64
  %33 = getelementptr inbounds [0 x %struct.fw_cfg_file], ptr %30, i64 0, i64 %32
  %34 = getelementptr inbounds nuw %struct.fw_cfg_file, ptr %33, i32 0, i32 3
  %35 = getelementptr inbounds [56 x i8], ptr %34, i64 0, i64 0
  %36 = call i32 @strcmp(ptr noundef %35, ptr noundef @.str.71) #20
  %37 = icmp ne i32 %36, 0
  br i1 %37, label %46, label %38

38:                                               ; preds = %26
  %39 = load ptr, ptr %5, align 8
  %40 = load i32, ptr %6, align 4
  %41 = add i32 32, %40
  %42 = trunc i32 %41 to i16
  %43 = load ptr, ptr %5, align 8
  %44 = getelementptr inbounds nuw %struct.FWCfgState, ptr %43, i32 0, i32 14
  %45 = load i64, ptr %44, align 8
  call void @fw_cfg_update_mr(ptr noundef %39, i16 noundef zeroext %42, i64 noundef %45)
  br label %88

46:                                               ; preds = %26
  %47 = load ptr, ptr %5, align 8
  %48 = getelementptr inbounds nuw %struct.FWCfgState, ptr %47, i32 0, i32 4
  %49 = load ptr, ptr %48, align 8
  %50 = getelementptr inbounds nuw %struct.FWCfgFiles, ptr %49, i32 0, i32 1
  %51 = load i32, ptr %6, align 4
  %52 = sext i32 %51 to i64
  %53 = getelementptr inbounds [0 x %struct.fw_cfg_file], ptr %50, i64 0, i64 %52
  %54 = getelementptr inbounds nuw %struct.fw_cfg_file, ptr %53, i32 0, i32 3
  %55 = getelementptr inbounds [56 x i8], ptr %54, i64 0, i64 0
  %56 = call i32 @strcmp(ptr noundef %55, ptr noundef @.str.72) #20
  %57 = icmp ne i32 %56, 0
  br i1 %57, label %66, label %58

58:                                               ; preds = %46
  %59 = load ptr, ptr %5, align 8
  %60 = load i32, ptr %6, align 4
  %61 = add i32 32, %60
  %62 = trunc i32 %61 to i16
  %63 = load ptr, ptr %5, align 8
  %64 = getelementptr inbounds nuw %struct.FWCfgState, ptr %63, i32 0, i32 15
  %65 = load i64, ptr %64, align 16
  call void @fw_cfg_update_mr(ptr noundef %59, i16 noundef zeroext %62, i64 noundef %65)
  br label %87

66:                                               ; preds = %46
  %67 = load ptr, ptr %5, align 8
  %68 = getelementptr inbounds nuw %struct.FWCfgState, ptr %67, i32 0, i32 4
  %69 = load ptr, ptr %68, align 8
  %70 = getelementptr inbounds nuw %struct.FWCfgFiles, ptr %69, i32 0, i32 1
  %71 = load i32, ptr %6, align 4
  %72 = sext i32 %71 to i64
  %73 = getelementptr inbounds [0 x %struct.fw_cfg_file], ptr %70, i64 0, i64 %72
  %74 = getelementptr inbounds nuw %struct.fw_cfg_file, ptr %73, i32 0, i32 3
  %75 = getelementptr inbounds [56 x i8], ptr %74, i64 0, i64 0
  %76 = call i32 @strcmp(ptr noundef %75, ptr noundef @.str.74) #20
  %77 = icmp ne i32 %76, 0
  br i1 %77, label %86, label %78

78:                                               ; preds = %66
  %79 = load ptr, ptr %5, align 8
  %80 = load i32, ptr %6, align 4
  %81 = add i32 32, %80
  %82 = trunc i32 %81 to i16
  %83 = load ptr, ptr %5, align 8
  %84 = getelementptr inbounds nuw %struct.FWCfgState, ptr %83, i32 0, i32 16
  %85 = load i64, ptr %84, align 8
  call void @fw_cfg_update_mr(ptr noundef %79, i16 noundef zeroext %82, i64 noundef %85)
  br label %86

86:                                               ; preds = %78, %66
  br label %87

87:                                               ; preds = %86, %58
  br label %88

88:                                               ; preds = %87, %38
  br label %89

89:                                               ; preds = %88
  %90 = load i32, ptr %6, align 4
  %91 = add i32 %90, 1
  store i32 %91, ptr %6, align 4
  br label %22, !llvm.loop !17

92:                                               ; preds = %22
  call void @llvm.lifetime.end.p0(i64 4, ptr %7) #18
  call void @llvm.lifetime.end.p0(i64 4, ptr %6) #18
  call void @llvm.lifetime.end.p0(i64 8, ptr %5) #18
  ret i32 0
}