; Function Attrs: nounwind sspstrong uwtable
define internal noundef i32 @fw_cfg_acpi_mr_restore_post_load(ptr noundef readonly captures(none) %0, i32 %1) #2 {
  %3 = alloca i64, align 8
  %4 = alloca i64, align 8
  %5 = alloca i64, align 8
  %6 = getelementptr inbounds nuw i8, ptr %0, i64 840
  %7 = load ptr, ptr %6, align 8
  %.not = icmp eq ptr %7, null
  br i1 %.not, label %8, label %9

8:                                                ; preds = %2
  tail call void @__assert_fail(ptr noundef nonnull @.str.5, ptr noundef nonnull @.str.1, i32 noundef 639, ptr noundef nonnull @__PRETTY_FUNCTION__.fw_cfg_acpi_mr_restore_post_load) #19
  unreachable

9:                                                ; preds = %2
  %10 = load i32, ptr %7, align 4
  %11 = tail call noundef i32 @llvm.bswap.i32(i32 %10)
  %12 = icmp sgt i32 %11, 0
  br i1 %12, label %.lr.ph, label %._crit_edge

.lr.ph:                                           ; preds = %9
  %13 = getelementptr inbounds nuw i8, ptr %0, i64 1208
  %14 = getelementptr i8, ptr %0, i64 808
  %15 = getelementptr inbounds nuw i8, ptr %0, i64 816
  %16 = getelementptr inbounds nuw i8, ptr %0, i64 1200
  %17 = getelementptr inbounds nuw i8, ptr %0, i64 1192
  %wide.trip.count = zext nneg i32 %11 to i64
  br label %18

18:                                               ; preds = %.lr.ph, %78
  %indvars.iv = phi i64 [ 0, %.lr.ph ], [ %indvars.iv.next, %78 ]
  %19 = load ptr, ptr %6, align 8
  %.idx = shl nuw nsw i64 %indvars.iv, 6
  %20 = getelementptr i8, ptr %19, i64 12
  %21 = getelementptr i8, ptr %20, i64 %.idx
  %22 = call i32 @strcmp(ptr noundef nonnull dereferenceable(1) %21, ptr noundef nonnull dereferenceable(16) @.str.71) #20
  %.not21 = icmp eq i32 %22, 0
  br i1 %.not21, label %23, label %40

23:                                               ; preds = %18
  %24 = trunc i64 %indvars.iv to i16
  %25 = add i16 %24, 32
  %26 = load i64, ptr %17, align 8
  call void @llvm.lifetime.start.p0(i64 8, ptr nonnull %5) #18
  %27 = and i16 %25, 16383
  %28 = zext nneg i16 %27 to i32
  %.val.i = load i16, ptr %14, align 8
  %29 = zext i16 %.val.i to i32
  %30 = add nuw nsw i32 %29, 32
  %31 = icmp samesign ugt i32 %30, %28
  br i1 %31, label %fw_cfg_update_mr.exit, label %32

32:                                               ; preds = %23
  call void @__assert_fail(ptr noundef nonnull @.str.109, ptr noundef nonnull @.str.1, i32 noundef 626, ptr noundef nonnull @__PRETTY_FUNCTION__.fw_cfg_update_mr) #19
  unreachable

fw_cfg_update_mr.exit:                            ; preds = %23
  store i64 0, ptr %5, align 8, !annotation !7
  %.lobit.i = lshr i16 %25, 15
  %33 = zext nneg i16 %.lobit.i to i64
  %34 = getelementptr inbounds nuw [2 x ptr], ptr %15, i64 0, i64 %33
  %35 = load ptr, ptr %34, align 8
  %36 = zext nneg i16 %27 to i64
  %37 = getelementptr inbounds nuw %struct.FWCfgEntry, ptr %35, i64 %36, i32 2
  %38 = load ptr, ptr %37, align 8
  %39 = call ptr @memory_region_from_host(ptr noundef %38, ptr noundef nonnull %5) #18
  call void @memory_region_ram_resize(ptr noundef %39, i64 noundef %26, ptr noundef nonnull @error_abort) #18
  call void @llvm.lifetime.end.p0(i64 8, ptr nonnull %5) #18
  br label %78

40:                                               ; preds = %18
  %41 = call i32 @strcmp(ptr noundef nonnull dereferenceable(1) %21, ptr noundef nonnull dereferenceable(17) @.str.72) #20
  %.not22 = icmp eq i32 %41, 0
  br i1 %.not22, label %42, label %59

42:                                               ; preds = %40
  %43 = trunc i64 %indvars.iv to i16
  %44 = add i16 %43, 32
  %45 = load i64, ptr %16, align 16
  call void @llvm.lifetime.start.p0(i64 8, ptr nonnull %4) #18
  %46 = and i16 %44, 16383
  %47 = zext nneg i16 %46 to i32
  %.val.i24 = load i16, ptr %14, align 8
  %48 = zext i16 %.val.i24 to i32
  %49 = add nuw nsw i32 %48, 32
  %50 = icmp samesign ugt i32 %49, %47
  br i1 %50, label %fw_cfg_update_mr.exit26, label %51

51:                                               ; preds = %42
  call void @__assert_fail(ptr noundef nonnull @.str.109, ptr noundef nonnull @.str.1, i32 noundef 626, ptr noundef nonnull @__PRETTY_FUNCTION__.fw_cfg_update_mr) #19
  unreachable

fw_cfg_update_mr.exit26:                          ; preds = %42
  store i64 0, ptr %4, align 8, !annotation !7
  %.lobit.i25 = lshr i16 %44, 15
  %52 = zext nneg i16 %.lobit.i25 to i64
  %53 = getelementptr inbounds nuw [2 x ptr], ptr %15, i64 0, i64 %52
  %54 = load ptr, ptr %53, align 8
  %55 = zext nneg i16 %46 to i64
  %56 = getelementptr inbounds nuw %struct.FWCfgEntry, ptr %54, i64 %55, i32 2
  %57 = load ptr, ptr %56, align 8
  %58 = call ptr @memory_region_from_host(ptr noundef %57, ptr noundef nonnull %4) #18
  call void @memory_region_ram_resize(ptr noundef %58, i64 noundef %45, ptr noundef nonnull @error_abort) #18
  call void @llvm.lifetime.end.p0(i64 8, ptr nonnull %4) #18
  br label %78

59:                                               ; preds = %40
  %60 = call i32 @strcmp(ptr noundef nonnull dereferenceable(1) %21, ptr noundef nonnull dereferenceable(14) @.str.74) #20
  %.not23 = icmp eq i32 %60, 0
  br i1 %.not23, label %61, label %78

61:                                               ; preds = %59
  %62 = trunc i64 %indvars.iv to i16
  %63 = add i16 %62, 32
  %64 = load i64, ptr %13, align 8
  call void @llvm.lifetime.start.p0(i64 8, ptr nonnull %3) #18
  %65 = and i16 %63, 16383
  %66 = zext nneg i16 %65 to i32
  %.val.i27 = load i16, ptr %14, align 8
  %67 = zext i16 %.val.i27 to i32
  %68 = add nuw nsw i32 %67, 32
  %69 = icmp samesign ugt i32 %68, %66
  br i1 %69, label %fw_cfg_update_mr.exit29, label %70

70:                                               ; preds = %61
  call void @__assert_fail(ptr noundef nonnull @.str.109, ptr noundef nonnull @.str.1, i32 noundef 626, ptr noundef nonnull @__PRETTY_FUNCTION__.fw_cfg_update_mr) #19
  unreachable

fw_cfg_update_mr.exit29:                          ; preds = %61
  store i64 0, ptr %3, align 8, !annotation !7
  %.lobit.i28 = lshr i16 %63, 15
  %71 = zext nneg i16 %.lobit.i28 to i64
  %72 = getelementptr inbounds nuw [2 x ptr], ptr %15, i64 0, i64 %71
  %73 = load ptr, ptr %72, align 8
  %74 = zext nneg i16 %65 to i64
  %75 = getelementptr inbounds nuw %struct.FWCfgEntry, ptr %73, i64 %74, i32 2
  %76 = load ptr, ptr %75, align 8
  %77 = call ptr @memory_region_from_host(ptr noundef %76, ptr noundef nonnull %3) #18
  call void @memory_region_ram_resize(ptr noundef %77, i64 noundef %64, ptr noundef nonnull @error_abort) #18
  call void @llvm.lifetime.end.p0(i64 8, ptr nonnull %3) #18
  br label %78

78:                                               ; preds = %fw_cfg_update_mr.exit, %59, %fw_cfg_update_mr.exit29, %fw_cfg_update_mr.exit26
  %indvars.iv.next = add nuw nsw i64 %indvars.iv, 1
  %exitcond.not = icmp eq i64 %indvars.iv.next, %wide.trip.count
  br i1 %exitcond.not, label %._crit_edge, label %18, !llvm.loop !16

._crit_edge:                                      ; preds = %78, %9
  ret i32 0
}